; ModuleID = 'source-C-CXX/11/619.cpp'
source_filename = "source-C-CXX/11/619.cpp"
target datalayout = "e-m:e-p270:32:32-p271:32:32-p272:64:64-i64:64-f80:128-n8:16:32:64-S128"
target triple = "x86_64-pc-linux-gnu"

%"class.std::ios_base::Init" = type { i8 }
%"class.std::basic_istream" = type { i32 (...)**, i64, %"class.std::basic_ios" }
%"class.std::basic_ios" = type { %"class.std::ios_base", %"class.std::basic_ostream"*, i8, i8, %"class.std::basic_streambuf"*, %"class.std::ctype"*, %"class.std::num_put"*, %"class.std::num_get"* }
%"class.std::ios_base" = type { i32 (...)**, i64, i64, i32, i32, i32, %"struct.std::ios_base::_Callback_list"*, %"struct.std::ios_base::_Words", [8 x %"struct.std::ios_base::_Words"], i32, %"struct.std::ios_base::_Words"*, %"class.std::locale" }
%"struct.std::ios_base::_Callback_list" = type { %"struct.std::ios_base::_Callback_list"*, void (i32, %"class.std::ios_base"*, i32)*, i32, i32 }
%"struct.std::ios_base::_Words" = type { i8*, i64 }
%"class.std::locale" = type { %"class.std::locale::_Impl"* }
%"class.std::locale::_Impl" = type { i32, %"class.std::locale::facet"**, i64, %"class.std::locale::facet"**, i8** }
%"class.std::locale::facet" = type <{ i32 (...)**, i32, [4 x i8] }>
%"class.std::basic_ostream" = type { i32 (...)**, %"class.std::basic_ios" }
%"class.std::basic_streambuf" = type { i32 (...)**, i8*, i8*, i8*, i8*, i8*, i8*, %"class.std::locale" }
%"class.std::ctype" = type <{ %"class.std::locale::facet.base", [4 x i8], %struct.__locale_struct*, i8, [7 x i8], i32*, i32*, i16*, i8, [256 x i8], [256 x i8], i8, [6 x i8] }>
%"class.std::locale::facet.base" = type <{ i32 (...)**, i32 }>
%struct.__locale_struct = type { [13 x %struct.__locale_data*], i16*, i32*, i32*, [13 x i8*] }
%struct.__locale_data = type opaque
%"class.std::num_put" = type { %"class.std::locale::facet.base", [4 x i8] }
%"class.std::num_get" = type { %"class.std::locale::facet.base", [4 x i8] }

@_ZStL8__ioinit = internal global %"class.std::ios_base::Init" zeroinitializer, align 1
@__dso_handle = external hidden global i8
@_ZSt3cin = external global %"class.std::basic_istream", align 8
@_ZSt4cout = external global %"class.std::basic_ostream", align 8
@llvm.global_ctors = appending global [1 x { i32, void ()*, i8* }] [{ i32, void ()*, i8* } { i32 65535, void ()* @_GLOBAL__sub_I_619.cpp, i8* null }]

declare void @_ZNSt8ios_base4InitC1Ev(%"class.std::ios_base::Init"* nonnull align 1 dereferenceable(1)) unnamed_addr #0

; Function Attrs: nounwind
declare void @_ZNSt8ios_base4InitD1Ev(%"class.std::ios_base::Init"* nonnull align 1 dereferenceable(1)) unnamed_addr #1

; Function Attrs: nofree nounwind
declare i32 @__cxa_atexit(void (i8*)*, i8*, i8*) local_unnamed_addr #2

; Function Attrs: mustprogress norecurse sspstrong uwtable
define dso_local i32 @main() local_unnamed_addr #3 {
  %1 = alloca [16 x i32], align 16
  %2 = alloca i32, align 4
  %3 = bitcast [16 x i32]* %1 to i8*
  call void @llvm.lifetime.start.p0i8(i64 64, i8* nonnull %3) #8
  %4 = bitcast i32* %2 to i8*
  call void @llvm.lifetime.start.p0i8(i64 4, i8* nonnull %4) #8
  br label %5

5:                                                ; preds = %156, %0
  %6 = phi i32 [ 1, %0 ], [ %158, %156 ]
  %7 = call nonnull align 8 dereferenceable(16) %"class.std::basic_istream"* @_ZNSirsERi(%"class.std::basic_istream"* nonnull align 8 dereferenceable(16) @_ZSt3cin, i32* nonnull align 4 dereferenceable(4) %2)
  %8 = load i32, i32* %2, align 4, !tbaa !5
  switch i32 %8, label %152 [
    i32 -1, label %160
    i32 0, label %9
  ]

9:                                                ; preds = %5
  %10 = icmp sgt i32 %6, 1
  br i1 %10, label %11, label %119

11:                                               ; preds = %9
  %12 = zext i32 %6 to i64
  %13 = add nsw i64 %12, -1
  %14 = add nsw i64 %12, -9
  %15 = lshr i64 %14, 3
  %16 = add nuw nsw i64 %15, 1
  %17 = icmp ult i64 %13, 8
  %18 = and i64 %13, -8
  %19 = or i64 %18, 1
  %20 = and i64 %16, 1
  %21 = icmp ult i64 %14, 8
  %22 = and i64 %16, 4611686018427387902
  %23 = icmp eq i64 %20, 0
  %24 = icmp eq i64 %13, %18
  br label %25

25:                                               ; preds = %11, %115
  %26 = phi i64 [ 1, %11 ], [ %117, %115 ]
  %27 = phi i32 [ 0, %11 ], [ %116, %115 ]
  %28 = getelementptr inbounds [16 x i32], [16 x i32]* %1, i64 0, i64 %26
  %29 = load i32, i32* %28, align 4, !tbaa !5
  br i1 %17, label %101, label %30

30:                                               ; preds = %25
  %31 = insertelement <4 x i32> <i32 poison, i32 0, i32 0, i32 0>, i32 %27, i32 0
  %32 = insertelement <4 x i32> poison, i32 %29, i32 0
  %33 = shufflevector <4 x i32> %32, <4 x i32> poison, <4 x i32> zeroinitializer
  %34 = insertelement <4 x i32> poison, i32 %29, i32 0
  %35 = shufflevector <4 x i32> %34, <4 x i32> poison, <4 x i32> zeroinitializer
  br i1 %21, label %74, label %36

36:                                               ; preds = %30, %36
  %37 = phi i64 [ %71, %36 ], [ 0, %30 ]
  %38 = phi <4 x i32> [ %69, %36 ], [ %31, %30 ]
  %39 = phi <4 x i32> [ %70, %36 ], [ zeroinitializer, %30 ]
  %40 = phi i64 [ %72, %36 ], [ %22, %30 ]
  %41 = or i64 %37, 1
  %42 = getelementptr inbounds [16 x i32], [16 x i32]* %1, i64 0, i64 %41
  %43 = bitcast i32* %42 to <4 x i32>*
  %44 = load <4 x i32>, <4 x i32>* %43, align 4, !tbaa !5
  %45 = getelementptr inbounds i32, i32* %42, i64 4
  %46 = bitcast i32* %45 to <4 x i32>*
  %47 = load <4 x i32>, <4 x i32>* %46, align 4, !tbaa !5
  %48 = shl nsw <4 x i32> %44, <i32 1, i32 1, i32 1, i32 1>
  %49 = shl nsw <4 x i32> %47, <i32 1, i32 1, i32 1, i32 1>
  %50 = icmp eq <4 x i32> %33, %48
  %51 = icmp eq <4 x i32> %35, %49
  %52 = zext <4 x i1> %50 to <4 x i32>
  %53 = zext <4 x i1> %51 to <4 x i32>
  %54 = add <4 x i32> %38, %52
  %55 = add <4 x i32> %39, %53
  %56 = or i64 %37, 9
  %57 = getelementptr inbounds [16 x i32], [16 x i32]* %1, i64 0, i64 %56
  %58 = bitcast i32* %57 to <4 x i32>*
  %59 = load <4 x i32>, <4 x i32>* %58, align 4, !tbaa !5
  %60 = getelementptr inbounds i32, i32* %57, i64 4
  %61 = bitcast i32* %60 to <4 x i32>*
  %62 = load <4 x i32>, <4 x i32>* %61, align 4, !tbaa !5
  %63 = shl nsw <4 x i32> %59, <i32 1, i32 1, i32 1, i32 1>
  %64 = shl nsw <4 x i32> %62, <i32 1, i32 1, i32 1, i32 1>
  %65 = icmp eq <4 x i32> %33, %63
  %66 = icmp eq <4 x i32> %35, %64
  %67 = zext <4 x i1> %65 to <4 x i32>
  %68 = zext <4 x i1> %66 to <4 x i32>
  %69 = add <4 x i32> %54, %67
  %70 = add <4 x i32> %55, %68
  %71 = add nuw i64 %37, 16
  %72 = add i64 %40, -2
  %73 = icmp eq i64 %72, 0
  br i1 %73, label %74, label %36, !llvm.loop !9

74:                                               ; preds = %36, %30
  %75 = phi <4 x i32> [ undef, %30 ], [ %69, %36 ]
  %76 = phi <4 x i32> [ undef, %30 ], [ %70, %36 ]
  %77 = phi i64 [ 0, %30 ], [ %71, %36 ]
  %78 = phi <4 x i32> [ %31, %30 ], [ %69, %36 ]
  %79 = phi <4 x i32> [ zeroinitializer, %30 ], [ %70, %36 ]
  br i1 %23, label %96, label %80

80:                                               ; preds = %74
  %81 = or i64 %77, 1
  %82 = getelementptr inbounds [16 x i32], [16 x i32]* %1, i64 0, i64 %81
  %83 = getelementptr inbounds i32, i32* %82, i64 4
  %84 = bitcast i32* %83 to <4 x i32>*
  %85 = load <4 x i32>, <4 x i32>* %84, align 4, !tbaa !5
  %86 = shl nsw <4 x i32> %85, <i32 1, i32 1, i32 1, i32 1>
  %87 = icmp eq <4 x i32> %35, %86
  %88 = zext <4 x i1> %87 to <4 x i32>
  %89 = add <4 x i32> %79, %88
  %90 = bitcast i32* %82 to <4 x i32>*
  %91 = load <4 x i32>, <4 x i32>* %90, align 4, !tbaa !5
  %92 = shl nsw <4 x i32> %91, <i32 1, i32 1, i32 1, i32 1>
  %93 = icmp eq <4 x i32> %33, %92
  %94 = zext <4 x i1> %93 to <4 x i32>
  %95 = add <4 x i32> %78, %94
  br label %96

96:                                               ; preds = %74, %80
  %97 = phi <4 x i32> [ %75, %74 ], [ %95, %80 ]
  %98 = phi <4 x i32> [ %76, %74 ], [ %89, %80 ]
  %99 = add <4 x i32> %98, %97
  %100 = call i32 @llvm.vector.reduce.add.v4i32(<4 x i32> %99)
  br i1 %24, label %115, label %101

101:                                              ; preds = %25, %96
  %102 = phi i64 [ 1, %25 ], [ %19, %96 ]
  %103 = phi i32 [ %27, %25 ], [ %100, %96 ]
  br label %104

104:                                              ; preds = %101, %104
  %105 = phi i64 [ %113, %104 ], [ %102, %101 ]
  %106 = phi i32 [ %112, %104 ], [ %103, %101 ]
  %107 = getelementptr inbounds [16 x i32], [16 x i32]* %1, i64 0, i64 %105
  %108 = load i32, i32* %107, align 4, !tbaa !5
  %109 = shl nsw i32 %108, 1
  %110 = icmp eq i32 %29, %109
  %111 = zext i1 %110 to i32
  %112 = add nsw i32 %106, %111
  %113 = add nuw nsw i64 %105, 1
  %114 = icmp eq i64 %113, %12
  br i1 %114, label %115, label %104, !llvm.loop !12

115:                                              ; preds = %104, %96
  %116 = phi i32 [ %100, %96 ], [ %112, %104 ]
  %117 = add nuw nsw i64 %26, 1
  %118 = icmp eq i64 %117, %12
  br i1 %118, label %119, label %25, !llvm.loop !14

119:                                              ; preds = %115, %9
  %120 = phi i32 [ 0, %9 ], [ %116, %115 ]
  %121 = call nonnull align 8 dereferenceable(8) %"class.std::basic_ostream"* @_ZNSolsEi(%"class.std::basic_ostream"* nonnull align 8 dereferenceable(8) @_ZSt4cout, i32 %120)
  %122 = bitcast %"class.std::basic_ostream"* %121 to i8**
  %123 = load i8*, i8** %122, align 8, !tbaa !15
  %124 = getelementptr i8, i8* %123, i64 -24
  %125 = bitcast i8* %124 to i64*
  %126 = load i64, i64* %125, align 8
  %127 = bitcast %"class.std::basic_ostream"* %121 to i8*
  %128 = add nsw i64 %126, 240
  %129 = getelementptr inbounds i8, i8* %127, i64 %128
  %130 = bitcast i8* %129 to %"class.std::ctype"**
  %131 = load %"class.std::ctype"*, %"class.std::ctype"** %130, align 8, !tbaa !17
  %132 = icmp eq %"class.std::ctype"* %131, null
  br i1 %132, label %133, label %134

133:                                              ; preds = %119
  call void @_ZSt16__throw_bad_castv() #9
  unreachable

134:                                              ; preds = %119
  %135 = getelementptr inbounds %"class.std::ctype", %"class.std::ctype"* %131, i64 0, i32 8
  %136 = load i8, i8* %135, align 8, !tbaa !21
  %137 = icmp eq i8 %136, 0
  br i1 %137, label %141, label %138

138:                                              ; preds = %134
  %139 = getelementptr inbounds %"class.std::ctype", %"class.std::ctype"* %131, i64 0, i32 9, i64 10
  %140 = load i8, i8* %139, align 1, !tbaa !23
  br label %147

141:                                              ; preds = %134
  call void @_ZNKSt5ctypeIcE13_M_widen_initEv(%"class.std::ctype"* nonnull align 8 dereferenceable(570) %131)
  %142 = bitcast %"class.std::ctype"* %131 to i8 (%"class.std::ctype"*, i8)***
  %143 = load i8 (%"class.std::ctype"*, i8)**, i8 (%"class.std::ctype"*, i8)*** %142, align 8, !tbaa !15
  %144 = getelementptr inbounds i8 (%"class.std::ctype"*, i8)*, i8 (%"class.std::ctype"*, i8)** %143, i64 6
  %145 = load i8 (%"class.std::ctype"*, i8)*, i8 (%"class.std::ctype"*, i8)** %144, align 8
  %146 = call signext i8 %145(%"class.std::ctype"* nonnull align 8 dereferenceable(570) %131, i8 signext 10)
  br label %147

147:                                              ; preds = %138, %141
  %148 = phi i8 [ %140, %138 ], [ %146, %141 ]
  %149 = call nonnull align 8 dereferenceable(8) %"class.std::basic_ostream"* @_ZNSo3putEc(%"class.std::basic_ostream"* nonnull align 8 dereferenceable(8) %121, i8 signext %148)
  %150 = call nonnull align 8 dereferenceable(8) %"class.std::basic_ostream"* @_ZNSo5flushEv(%"class.std::basic_ostream"* nonnull align 8 dereferenceable(8) %149)
  %151 = load i32, i32* %2, align 4, !tbaa !5
  br label %156

152:                                              ; preds = %5
  %153 = sext i32 %6 to i64
  %154 = getelementptr inbounds [16 x i32], [16 x i32]* %1, i64 0, i64 %153
  store i32 %8, i32* %154, align 4, !tbaa !5
  %155 = add nsw i32 %6, 1
  br label %156

156:                                              ; preds = %152, %147
  %157 = phi i32 [ %8, %152 ], [ %151, %147 ]
  %158 = phi i32 [ %155, %152 ], [ 1, %147 ]
  %159 = icmp eq i32 %157, -1
  br i1 %159, label %160, label %5, !llvm.loop !24

160:                                              ; preds = %5, %156
  call void @llvm.lifetime.end.p0i8(i64 4, i8* nonnull %4) #8
  call void @llvm.lifetime.end.p0i8(i64 64, i8* nonnull %3) #8
  ret i32 0
}

; Function Attrs: argmemonly mustprogress nofree nosync nounwind willreturn
declare void @llvm.lifetime.start.p0i8(i64 immarg, i8* nocapture) #4

declare nonnull align 8 dereferenceable(16) %"class.std::basic_istream"* @_ZNSirsERi(%"class.std::basic_istream"* nonnull align 8 dereferenceable(16), i32* nonnull align 4 dereferenceable(4)) local_unnamed_addr #0

declare nonnull align 8 dereferenceable(8) %"class.std::basic_ostream"* @_ZNSolsEi(%"class.std::basic_ostream"* nonnull align 8 dereferenceable(8), i32) local_unnamed_addr #0

; Function Attrs: argmemonly mustprogress nofree nosync nounwind willreturn
declare void @llvm.lifetime.end.p0i8(i64 immarg, i8* nocapture) #4

declare nonnull align 8 dereferenceable(8) %"class.std::basic_ostream"* @_ZNSo3putEc(%"class.std::basic_ostream"* nonnull align 8 dereferenceable(8), i8 signext) local_unnamed_addr #0

declare nonnull align 8 dereferenceable(8) %"class.std::basic_ostream"* @_ZNSo5flushEv(%"class.std::basic_ostream"* nonnull align 8 dereferenceable(8)) local_unnamed_addr #0

; Function Attrs: noreturn
declare void @_ZSt16__throw_bad_castv() local_unnamed_addr #5

declare void @_ZNKSt5ctypeIcE13_M_widen_initEv(%"class.std::ctype"* nonnull align 8 dereferenceable(570)) local_unnamed_addr #0

; Function Attrs: sspstrong uwtable
define internal void @_GLOBAL__sub_I_619.cpp() #6 section ".text.startup" {
  tail call void @_ZNSt8ios_base4InitC1Ev(%"class.std::ios_base::Init"* nonnull align 1 dereferenceable(1) @_ZStL8__ioinit)
  %1 = tail call i32 @__cxa_atexit(void (i8*)* bitcast (void (%"class.std::ios_base::Init"*)* @_ZNSt8ios_base4InitD1Ev to void (i8*)*), i8* getelementptr inbounds (%"class.std::ios_base::Init", %"class.std::ios_base::Init"* @_ZStL8__ioinit, i64 0, i32 0), i8* nonnull @__dso_handle) #8
  ret void
}

; Function Attrs: nofree nosync nounwind readnone willreturn
declare i32 @llvm.vector.reduce.add.v4i32(<4 x i32>) #7


!llvm.module.flags = !{!0, !1, !2, !3}
!llvm.ident = !{!4}

!0 = !{i32 1, !"wchar_size", i32 4}
!1 = !{i32 7, !"PIC Level", i32 2}
!2 = !{i32 7, !"PIE Level", i32 2}
!3 = !{i32 7, !"uwtable", i32 1}
!4 = !{!"clang version 13.0.0"}
!5 = !{!6, !6, i64 0}
!6 = !{!"int", !7, i64 0}
!7 = !{!"omnipotent char", !8, i64 0}
!8 = !{!"Simple C++ TBAA"}
!9 = distinct !{!9, !10, !11}
!10 = !{!"llvm.loop.mustprogress"}
!11 = !{!"llvm.loop.isvectorized", i32 1}
!12 = distinct !{!12, !10, !13, !11}
!13 = !{!"llvm.loop.unroll.runtime.disable"}
!14 = distinct !{!14, !10}
!15 = !{!16, !16, i64 0}
!16 = !{!"vtable pointer", !8, i64 0}
!17 = !{!18, !19, i64 240}
!18 = !{!"_ZTSSt9basic_iosIcSt11char_traitsIcEE", !19, i64 216, !7, i64 224, !20, i64 225, !19, i64 232, !19, i64 240, !19, i64 248, !19, i64 256}
!19 = !{!"any pointer", !7, i64 0}
!20 = !{!"bool", !7, i64 0}
!21 = !{!22, !7, i64 56}
!22 = !{!"_ZTSSt5ctypeIcE", !19, i64 16, !20, i64 24, !19, i64 32, !19, i64 40, !19, i64 48, !7, i64 56, !7, i64 57, !7, i64 313, !7, i64 569}
!23 = !{!7, !7, i64 0}
!24 = distinct !{!24, !10}
